; Function Attrs: nounwind uwtable
define noundef i64 @ZSTDv07_freeDCtx(ptr noundef %0) local_unnamed_addr #1 {
  %2 = icmp eq ptr %0, null
  br i1 %2, label %8, label %3

3:                                                ; preds = %1
  %4 = getelementptr inbounds nuw i8, ptr %0, i64 21736
  %5 = load ptr, ptr %4, align 8, !tbaa !75
  %6 = getelementptr inbounds nuw i8, ptr %0, i64 21744
  %7 = load ptr, ptr %6, align 8, !tbaa !76
  tail call void %5(ptr noundef %7, ptr noundef nonnull %0) #26
  br label %8

8:                                                ; preds = %1, %3
  ret i64 0
}